target datalayout = "e-m:e-p270:32:32-p271:32:32-p272:64:64-i64:64-i128:128-f80:128-n8:16:32:64-S128"
target triple = "x86_64-pc-linux-gnu"

%struct.H5G_loc_t = type { ptr, ptr }

@H5G_init_g = external global i8, align 1
@H5_libterm_g = external global i8, align 1
@.str = private unnamed_addr constant [100 x i8] c"generated/home/dtcxzyw/WorkSpace/Projects/compilers/llvm-opt-benchmark/bench/hdf5/hdf5/src/H5Gloc.c\00", align 1
@H5E_FUNC_g = external global i64, align 8
@H5E_CANTINIT_g = external global i64, align 8
@.str.1 = private unnamed_addr constant [32 x i8] c"interface initialization failed\00", align 1
@H5E_SYM_g = external global i64, align 8
@__func__.H5G_loc_free = private unnamed_addr constant [13 x i8] c"H5G_loc_free\00", align 1
@H5E_CANTRELEASE_g = external global i64, align 8
@.str.26 = private unnamed_addr constant [20 x i8] c"unable to free path\00", align 1
@H5E_OHDR_g = external global i64, align 8
@.str.27 = private unnamed_addr constant [38 x i8] c"unable to free object header location\00", align 1

; Function Attrs: nounwind uwtable
define i32 @H5G_loc_free(ptr noundef %0) #0 {
  %2 = alloca ptr, align 8
  %3 = alloca i32, align 4
  %4 = alloca i8, align 1
  store ptr %0, ptr %2, align 8, !tbaa !9
  call void @llvm.lifetime.start.p0(i64 4, ptr %3) #7
  store i32 0, ptr %3, align 4, !tbaa !7
  call void @llvm.lifetime.start.p0(i64 1, ptr %4) #7
  store i8 0, ptr %4, align 1, !tbaa !11
  %5 = load i8, ptr @H5G_init_g, align 1, !tbaa !11, !range !13, !noundef !14
  %6 = trunc i8 %5 to i1
  br i1 %6, label %11, label %7

7:                                                ; preds = %1
  %8 = load i8, ptr @H5_libterm_g, align 1, !tbaa !11, !range !13, !noundef !14
  %9 = trunc i8 %8 to i1
  %10 = xor i1 %9, true
  br label %11

11:                                               ; preds = %7, %1
  %12 = phi i1 [ false, %1 ], [ %10, %7 ]
  %13 = xor i1 %12, true
  %14 = xor i1 %13, true
  %15 = zext i1 %14 to i32
  %16 = sext i32 %15 to i64
  %17 = call i64 @llvm.expect.i64(i64 %16, i64 0)
  %18 = icmp ne i64 %17, 0
  br i1 %18, label %19, label %42

19:                                               ; preds = %11
  store i8 1, ptr @H5G_init_g, align 1, !tbaa !11
  %20 = call i32 @H5G__init_package()
  %21 = icmp slt i32 %20, 0
  br i1 %21, label %22, label %41

22:                                               ; preds = %19
  store i8 0, ptr @H5G_init_g, align 1, !tbaa !11
  br label %23

23:                                               ; preds = %22
  br label %24

24:                                               ; preds = %23
  br label %25

25:                                               ; preds = %24
  %26 = load i64, ptr @H5E_FUNC_g, align 8, !tbaa !15
  %27 = load i64, ptr @H5E_CANTINIT_g, align 8, !tbaa !15
  %28 = call i32 (ptr, ptr, i32, i64, i64, ptr, ...) @H5E_printf_stack(ptr noundef @.str, ptr noundef @__func__.H5G_loc_free, i32 noundef 345, i64 noundef %26, i64 noundef %27, ptr noundef @.str.1)
  br label %29

29:                                               ; preds = %25
  br label %30

30:                                               ; preds = %29
  store i8 1, ptr %4, align 1, !tbaa !11
  %31 = load i8, ptr %4, align 1, !tbaa !11, !range !13, !noundef !14
  %32 = trunc i8 %31 to i1
  %33 = zext i1 %32 to i8
  store i8 %33, ptr %4, align 1, !tbaa !11
  br label %34

34:                                               ; preds = %30
  br label %35

35:                                               ; preds = %34
  br label %36

36:                                               ; preds = %35
  store i32 -1, ptr %3, align 4, !tbaa !7
  br label %108

37:                                               ; No predecessors!
  br label %38

38:                                               ; preds = %37
  br label %39

39:                                               ; preds = %38
  br label %40

40:                                               ; preds = %39
  br label %41

41:                                               ; preds = %40, %19
  br label %42

42:                                               ; preds = %41, %11
  %43 = load i8, ptr @H5G_init_g, align 1, !tbaa !11, !range !13, !noundef !14
  %44 = trunc i8 %43 to i1
  br i1 %44, label %49, label %45

45:                                               ; preds = %42
  %46 = load i8, ptr @H5_libterm_g, align 1, !tbaa !11, !range !13, !noundef !14
  %47 = trunc i8 %46 to i1
  %48 = xor i1 %47, true
  br label %49

49:                                               ; preds = %45, %42
  %50 = phi i1 [ true, %42 ], [ %48, %45 ]
  %51 = xor i1 %50, true
  %52 = xor i1 %51, true
  %53 = zext i1 %52 to i32
  %54 = sext i32 %53 to i64
  %55 = call i64 @llvm.expect.i64(i64 %54, i64 1)
  %56 = icmp ne i64 %55, 0
  br i1 %56, label %57, label %109

57:                                               ; preds = %49
  %58 = load ptr, ptr %2, align 8, !tbaa !9
  %59 = getelementptr inbounds nuw %struct.H5G_loc_t, ptr %58, i32 0, i32 1
  %60 = load ptr, ptr %59, align 8, !tbaa !25
  %61 = call i32 @H5G_name_free(ptr noundef %60)
  %62 = icmp slt i32 %61, 0
  br i1 %62, label %63, label %82

63:                                               ; preds = %57
  br label %64

64:                                               ; preds = %63
  br label %65

65:                                               ; preds = %64
  br label %66

66:                                               ; preds = %65
  %67 = load i64, ptr @H5E_SYM_g, align 8, !tbaa !15
  %68 = load i64, ptr @H5E_CANTRELEASE_g, align 8, !tbaa !15
  %69 = call i32 (ptr, ptr, i32, i64, i64, ptr, ...) @H5E_printf_stack(ptr noundef @.str, ptr noundef @__func__.H5G_loc_free, i32 noundef 352, i64 noundef %67, i64 noundef %68, ptr noundef @.str.26)
  br label %70

70:                                               ; preds = %66
  br label %71

71:                                               ; preds = %70
  store i8 1, ptr %4, align 1, !tbaa !11
  %72 = load i8, ptr %4, align 1, !tbaa !11, !range !13, !noundef !14
  %73 = trunc i8 %72 to i1
  %74 = zext i1 %73 to i8
  store i8 %74, ptr %4, align 1, !tbaa !11
  br label %75

75:                                               ; preds = %71
  br label %76

76:                                               ; preds = %75
  br label %77

77:                                               ; preds = %76
  store i32 -1, ptr %3, align 4, !tbaa !7
  br label %108

78:                                               ; No predecessors!
  br label %79

79:                                               ; preds = %78
  br label %80

80:                                               ; preds = %79
  br label %81

81:                                               ; preds = %80
  br label %82

82:                                               ; preds = %81, %57
  %83 = load ptr, ptr %2, align 8, !tbaa !9
  %84 = getelementptr inbounds nuw %struct.H5G_loc_t, ptr %83, i32 0, i32 0
  %85 = load ptr, ptr %84, align 8, !tbaa !21
  %86 = call i32 @H5O_loc_free(ptr noundef %85)
  %87 = icmp slt i32 %86, 0
  br i1 %87, label %88, label %107

88:                                               ; preds = %82
  br label %89

89:                                               ; preds = %88
  br label %90

90:                                               ; preds = %89
  br label %91

91:                                               ; preds = %90
  %92 = load i64, ptr @H5E_OHDR_g, align 8, !tbaa !15
  %93 = load i64, ptr @H5E_CANTRELEASE_g, align 8, !tbaa !15
  %94 = call i32 (ptr, ptr, i32, i64, i64, ptr, ...) @H5E_printf_stack(ptr noundef @.str, ptr noundef @__func__.H5G_loc_free, i32 noundef 354, i64 noundef %92, i64 noundef %93, ptr noundef @.str.27)
  br label %95

95:                                               ; preds = %91
  br label %96

96:                                               ; preds = %95
  store i8 1, ptr %4, align 1, !tbaa !11
  %97 = load i8, ptr %4, align 1, !tbaa !11, !range !13, !noundef !14
  %98 = trunc i8 %97 to i1
  %99 = zext i1 %98 to i8
  store i8 %99, ptr %4, align 1, !tbaa !11
  br label %100

100:                                              ; preds = %96
  br label %101

101:                                              ; preds = %100
  br label %102

102:                                              ; preds = %101
  store i32 -1, ptr %3, align 4, !tbaa !7
  br label %108

103:                                              ; No predecessors!
  br label %104

104:                                              ; preds = %103
  br label %105

105:                                              ; preds = %104
  br label %106

106:                                              ; preds = %105
  br label %107

107:                                              ; preds = %106, %82
  br label %108

108:                                              ; preds = %107, %102, %77, %36
  br label %109

109:                                              ; preds = %108, %49
  %110 = load i32, ptr %3, align 4, !tbaa !7
  call void @llvm.lifetime.end.p0(i64 1, ptr %4) #7
  call void @llvm.lifetime.end.p0(i64 4, ptr %3) #7
  ret i32 %110
}