; Function Attrs: nounwind uwtable
define range(i32 -1, 1) i32 @H5G_loc_free(ptr noundef readonly captures(none) %0) local_unnamed_addr #0 {
  %2 = load i8, ptr @H5G_init_g, align 1, !tbaa !3, !range !7, !noundef !8
  %3 = trunc nuw i8 %2 to i1
  %4 = load i8, ptr @H5_libterm_g, align 1, !range !7
  %5 = trunc nuw i8 %4 to i1
  %6 = select i1 %3, i1 true, i1 %5
  br i1 %6, label %14, label %7, !prof !9

7:                                                ; preds = %1
  store i8 1, ptr @H5G_init_g, align 1, !tbaa !3
  %8 = tail call i32 @H5G__init_package() #9
  %9 = icmp slt i32 %8, 0
  br i1 %9, label %10, label %._crit_edge

._crit_edge:                                      ; preds = %7
  %.pre = load i8, ptr @H5G_init_g, align 1, !tbaa !3, !range !7
  %.pre5 = load i8, ptr @H5_libterm_g, align 1, !range !7
  %.pre6 = trunc nuw i8 %.pre to i1
  %.pre7 = trunc nuw i8 %.pre5 to i1
  br label %14

10:                                               ; preds = %7
  store i8 0, ptr @H5G_init_g, align 1, !tbaa !3
  %11 = load i64, ptr @H5E_FUNC_g, align 8, !tbaa !10
  %12 = load i64, ptr @H5E_CANTINIT_g, align 8, !tbaa !10
  %13 = tail call i32 (ptr, ptr, i32, i64, i64, ptr, ...) @H5E_printf_stack(ptr noundef nonnull @.str, ptr noundef nonnull @__func__.H5G_loc_free, i32 noundef 345, i64 noundef %11, i64 noundef %12, ptr noundef nonnull @.str.1) #9
  br label %34

14:                                               ; preds = %._crit_edge, %1
  %.pre-phi8 = phi i1 [ %.pre7, %._crit_edge ], [ %5, %1 ]
  %.pre-phi = phi i1 [ %.pre6, %._crit_edge ], [ %3, %1 ]
  %15 = xor i1 %.pre-phi8, true
  %16 = select i1 %.pre-phi, i1 true, i1 %15
  br i1 %16, label %17, label %34, !prof !9

17:                                               ; preds = %14
  %18 = getelementptr inbounds nuw i8, ptr %0, i64 8
  %19 = load ptr, ptr %18, align 8, !tbaa !17
  %20 = tail call i32 @H5G_name_free(ptr noundef %19) #9
  %21 = icmp slt i32 %20, 0
  br i1 %21, label %22, label %26

22:                                               ; preds = %17
  %23 = load i64, ptr @H5E_SYM_g, align 8, !tbaa !10
  %24 = load i64, ptr @H5E_CANTRELEASE_g, align 8, !tbaa !10
  %25 = tail call i32 (ptr, ptr, i32, i64, i64, ptr, ...) @H5E_printf_stack(ptr noundef nonnull @.str, ptr noundef nonnull @__func__.H5G_loc_free, i32 noundef 352, i64 noundef %23, i64 noundef %24, ptr noundef nonnull @.str.26) #9
  br label %34

26:                                               ; preds = %17
  %27 = load ptr, ptr %0, align 8, !tbaa !12
  %28 = tail call i32 @H5O_loc_free(ptr noundef %27) #9
  %29 = icmp slt i32 %28, 0
  br i1 %29, label %30, label %34

30:                                               ; preds = %26
  %31 = load i64, ptr @H5E_OHDR_g, align 8, !tbaa !10
  %32 = load i64, ptr @H5E_CANTRELEASE_g, align 8, !tbaa !10
  %33 = tail call i32 (ptr, ptr, i32, i64, i64, ptr, ...) @H5E_printf_stack(ptr noundef nonnull @.str, ptr noundef nonnull @__func__.H5G_loc_free, i32 noundef 354, i64 noundef %31, i64 noundef %32, ptr noundef nonnull @.str.27) #9
  br label %34

34:                                               ; preds = %10, %22, %30, %26, %14
  %.0 = phi i32 [ -1, %10 ], [ -1, %22 ], [ -1, %30 ], [ 0, %26 ], [ 0, %14 ]
  ret i32 %.0
}